(lp0
(lp1
I1000
aS'Player'
p2
aa(lp3
I902
aS'Chris'
p4
aa(lp5
I900
ag2
aa(lp6
I800
ag2
aa(lp7
I700
ag2
aa(lp8
I656
aS'Chris'
p9
aa(lp10
I653
aS'Chris'
p11
aa(lp12
I640
aS'Chris'
p13
aa(lp14
I600
ag2
aa(lp15
I589
aS'Chris'
p16
aa.