(lp0
(lp1
I2628
aS'Chris'
p2
aa(lp3
I1000
aS'Player'
p4
aa(lp5
I900
ag4
aa(lp6
I800
ag4
aa(lp7
I700
ag4
aa(lp8
I657
aS'Chris'
p9
aa(lp10
I600
ag4
aa(lp11
I500
ag4
aa(lp12
I400
ag4
aa(lp13
I343
aS'Chris'
p14
aa.